target datalayout = "e-m:e-p270:32:32-p271:32:32-p272:64:64-i64:64-i128:128-f80:128-n8:16:32:64-S128"
target triple = "x86_64-pc-linux-gnu"

%struct.mbedtls_asn1_buf = type { i32, i64, ptr }

@.str = private unnamed_addr constant [121 x i8] c"generated/home/dtcxzyw/WorkSpace/Projects/compilers/llvm-opt-benchmark/bench/lief/bench_build/mbed_src/library/pkparse.c\00", align 1

; Function Attrs: inlinehint nounwind uwtable
define internal i32 @mbedtls_error_add(i32 noundef %0, i32 noundef %1, ptr noundef %2, i32 noundef %3) #3 {
  %5 = alloca i32, align 4
  %6 = alloca i32, align 4
  %7 = alloca ptr, align 8
  %8 = alloca i32, align 4
  store i32 %0, ptr %5, align 4, !tbaa !13
  store i32 %1, ptr %6, align 4, !tbaa !13
  store ptr %2, ptr %7, align 8, !tbaa !9
  store i32 %3, ptr %8, align 4, !tbaa !13
  %9 = load i32, ptr %5, align 4, !tbaa !13
  %10 = load i32, ptr %6, align 4, !tbaa !13
  %11 = add nsw i32 %9, %10
  ret i32 %11
}

; Function Attrs: nounwind uwtable
define internal i32 @pk_parse_key_sec1_der(ptr noundef %0, ptr noundef %1, i64 noundef %2, ptr noundef %3, ptr noundef %4) #0 {
  %6 = alloca i32, align 4
  %7 = alloca ptr, align 8
  %8 = alloca ptr, align 8
  %9 = alloca i64, align 8
  %10 = alloca ptr, align 8
  %11 = alloca ptr, align 8
  %12 = alloca i32, align 4
  %13 = alloca i32, align 4
  %14 = alloca i32, align 4
  %15 = alloca i64, align 8
  %16 = alloca i64, align 8
  %17 = alloca %struct.mbedtls_asn1_buf, align 8
  %18 = alloca ptr, align 8
  %19 = alloca ptr, align 8
  %20 = alloca ptr, align 8
  %21 = alloca ptr, align 8
  %22 = alloca i32, align 4
  store ptr %0, ptr %7, align 8, !tbaa !11
  store ptr %1, ptr %8, align 8, !tbaa !9
  store i64 %2, ptr %9, align 8, !tbaa !15
  store ptr %3, ptr %10, align 8, !tbaa !19
  store ptr %4, ptr %11, align 8, !tbaa !19
  call void @llvm.lifetime.start.p0(i64 4, ptr %12) #9
  store i32 -110, ptr %12, align 4, !tbaa !13
  call void @llvm.lifetime.start.p0(i64 4, ptr %13) #9
  call void @llvm.lifetime.start.p0(i64 4, ptr %14) #9
  call void @llvm.lifetime.start.p0(i64 8, ptr %15) #9
  call void @llvm.lifetime.start.p0(i64 8, ptr %16) #9
  call void @llvm.lifetime.start.p0(i64 24, ptr %17) #9
  call void @llvm.memset.p0.i64(ptr align 8 %17, i8 0, i64 24, i1 false)
  call void @llvm.lifetime.start.p0(i64 8, ptr %18) #9
  %23 = load ptr, ptr %8, align 8, !tbaa !9
  store ptr %23, ptr %18, align 8, !tbaa !9
  call void @llvm.lifetime.start.p0(i64 8, ptr %19) #9
  call void @llvm.lifetime.start.p0(i64 8, ptr %20) #9
  %24 = load ptr, ptr %18, align 8, !tbaa !9
  %25 = load i64, ptr %9, align 8, !tbaa !15
  %26 = getelementptr inbounds nuw i8, ptr %24, i64 %25
  store ptr %26, ptr %20, align 8, !tbaa !9
  call void @llvm.lifetime.start.p0(i64 8, ptr %21) #9
  %27 = load ptr, ptr %20, align 8, !tbaa !9
  %28 = call i32 @mbedtls_asn1_get_tag(ptr noundef %18, ptr noundef %27, ptr noundef %15, i32 noundef 48)
  store i32 %28, ptr %12, align 4, !tbaa !13
  %29 = icmp ne i32 %28, 0
  br i1 %29, label %30, label %33

30:                                               ; preds = %5
  %31 = load i32, ptr %12, align 4, !tbaa !13
  %32 = call i32 @mbedtls_error_add(i32 noundef -15616, i32 noundef %31, ptr noundef @.str, i32 noundef 629)
  store i32 %32, ptr %6, align 4
  store i32 1, ptr %22, align 4
  br label %163

33:                                               ; preds = %5
  %34 = load ptr, ptr %18, align 8, !tbaa !9
  %35 = load i64, ptr %15, align 8, !tbaa !15
  %36 = getelementptr inbounds nuw i8, ptr %34, i64 %35
  store ptr %36, ptr %20, align 8, !tbaa !9
  %37 = load ptr, ptr %20, align 8, !tbaa !9
  %38 = call i32 @mbedtls_asn1_get_int(ptr noundef %18, ptr noundef %37, ptr noundef %13)
  store i32 %38, ptr %12, align 4, !tbaa !13
  %39 = icmp ne i32 %38, 0
  br i1 %39, label %40, label %43

40:                                               ; preds = %33
  %41 = load i32, ptr %12, align 4, !tbaa !13
  %42 = call i32 @mbedtls_error_add(i32 noundef -15616, i32 noundef %41, ptr noundef @.str, i32 noundef 635)
  store i32 %42, ptr %6, align 4
  store i32 1, ptr %22, align 4
  br label %163

43:                                               ; preds = %33
  %44 = load i32, ptr %13, align 4, !tbaa !13
  %45 = icmp ne i32 %44, 1
  br i1 %45, label %46, label %47

46:                                               ; preds = %43
  store i32 -15744, ptr %6, align 4
  store i32 1, ptr %22, align 4
  br label %163

47:                                               ; preds = %43
  %48 = load ptr, ptr %20, align 8, !tbaa !9
  %49 = call i32 @mbedtls_asn1_get_tag(ptr noundef %18, ptr noundef %48, ptr noundef %15, i32 noundef 4)
  store i32 %49, ptr %12, align 4, !tbaa !13
  %50 = icmp ne i32 %49, 0
  br i1 %50, label %51, label %54

51:                                               ; preds = %47
  %52 = load i32, ptr %12, align 4, !tbaa !13
  %53 = call i32 @mbedtls_error_add(i32 noundef -15616, i32 noundef %52, ptr noundef @.str, i32 noundef 643)
  store i32 %53, ptr %6, align 4
  store i32 1, ptr %22, align 4
  br label %163

54:                                               ; preds = %47
  %55 = load ptr, ptr %18, align 8, !tbaa !9
  store ptr %55, ptr %19, align 8, !tbaa !9
  %56 = load i64, ptr %15, align 8, !tbaa !15
  store i64 %56, ptr %16, align 8, !tbaa !15
  %57 = load i64, ptr %15, align 8, !tbaa !15
  %58 = load ptr, ptr %18, align 8, !tbaa !9
  %59 = getelementptr inbounds nuw i8, ptr %58, i64 %57
  store ptr %59, ptr %18, align 8, !tbaa !9
  store i32 0, ptr %14, align 4, !tbaa !13
  %60 = load ptr, ptr %18, align 8, !tbaa !9
  %61 = load ptr, ptr %20, align 8, !tbaa !9
  %62 = icmp ne ptr %60, %61
  br i1 %62, label %63, label %88

63:                                               ; preds = %54
  %64 = load ptr, ptr %20, align 8, !tbaa !9
  %65 = call i32 @mbedtls_asn1_get_tag(ptr noundef %18, ptr noundef %64, ptr noundef %15, i32 noundef 160)
  store i32 %65, ptr %12, align 4, !tbaa !13
  %66 = icmp eq i32 %65, 0
  br i1 %66, label %67, label %80

67:                                               ; preds = %63
  %68 = load ptr, ptr %18, align 8, !tbaa !9
  %69 = load i64, ptr %15, align 8, !tbaa !15
  %70 = getelementptr inbounds nuw i8, ptr %68, i64 %69
  %71 = call i32 @pk_get_ecparams(ptr noundef %18, ptr noundef %70, ptr noundef %17)
  store i32 %71, ptr %12, align 4, !tbaa !13
  %72 = icmp ne i32 %71, 0
  br i1 %72, label %77, label %73

73:                                               ; preds = %67
  %74 = load ptr, ptr %7, align 8, !tbaa !11
  %75 = call i32 @pk_use_ecparams(ptr noundef %17, ptr noundef %74)
  store i32 %75, ptr %12, align 4, !tbaa !13
  %76 = icmp ne i32 %75, 0
  br i1 %76, label %77, label %79

77:                                               ; preds = %73, %67
  %78 = load i32, ptr %12, align 4, !tbaa !13
  store i32 %78, ptr %6, align 4
  store i32 1, ptr %22, align 4
  br label %163

79:                                               ; preds = %73
  br label %87

80:                                               ; preds = %63
  %81 = load i32, ptr %12, align 4, !tbaa !13
  %82 = icmp ne i32 %81, -98
  br i1 %82, label %83, label %86

83:                                               ; preds = %80
  %84 = load i32, ptr %12, align 4, !tbaa !13
  %85 = call i32 @mbedtls_error_add(i32 noundef -15616, i32 noundef %84, ptr noundef @.str, i32 noundef 666)
  store i32 %85, ptr %6, align 4
  store i32 1, ptr %22, align 4
  br label %163

86:                                               ; preds = %80
  br label %87

87:                                               ; preds = %86, %79
  br label %88

88:                                               ; preds = %87, %54
  %89 = load ptr, ptr %7, align 8, !tbaa !11
  %90 = load ptr, ptr %19, align 8, !tbaa !9
  %91 = load i64, ptr %16, align 8, !tbaa !15
  %92 = call i32 @mbedtls_pk_ecc_set_key(ptr noundef %89, ptr noundef %90, i64 noundef %91)
  store i32 %92, ptr %12, align 4, !tbaa !13
  %93 = load i32, ptr %12, align 4, !tbaa !13
  %94 = icmp ne i32 %93, 0
  br i1 %94, label %95, label %97

95:                                               ; preds = %88
  %96 = load i32, ptr %12, align 4, !tbaa !13
  store i32 %96, ptr %6, align 4
  store i32 1, ptr %22, align 4
  br label %163

97:                                               ; preds = %88
  %98 = load ptr, ptr %18, align 8, !tbaa !9
  %99 = load ptr, ptr %20, align 8, !tbaa !9
  %100 = icmp ne ptr %98, %99
  br i1 %100, label %101, label %148

101:                                              ; preds = %97
  %102 = load ptr, ptr %20, align 8, !tbaa !9
  %103 = call i32 @mbedtls_asn1_get_tag(ptr noundef %18, ptr noundef %102, ptr noundef %15, i32 noundef 161)
  store i32 %103, ptr %12, align 4, !tbaa !13
  %104 = icmp eq i32 %103, 0
  br i1 %104, label %105, label %140

105:                                              ; preds = %101
  %106 = load ptr, ptr %18, align 8, !tbaa !9
  %107 = load i64, ptr %15, align 8, !tbaa !15
  %108 = getelementptr inbounds nuw i8, ptr %106, i64 %107
  store ptr %108, ptr %21, align 8, !tbaa !9
  %109 = load ptr, ptr %21, align 8, !tbaa !9
  %110 = call i32 @mbedtls_asn1_get_bitstring_null(ptr noundef %18, ptr noundef %109, ptr noundef %15)
  store i32 %110, ptr %12, align 4, !tbaa !13
  %111 = icmp ne i32 %110, 0
  br i1 %111, label %112, label %115

112:                                              ; preds = %105
  %113 = load i32, ptr %12, align 4, !tbaa !13
  %114 = call i32 @mbedtls_error_add(i32 noundef -15616, i32 noundef %113, ptr noundef @.str, i32 noundef 689)
  store i32 %114, ptr %6, align 4
  store i32 1, ptr %22, align 4
  br label %163

115:                                              ; preds = %105
  %116 = load ptr, ptr %18, align 8, !tbaa !9
  %117 = load i64, ptr %15, align 8, !tbaa !15
  %118 = getelementptr inbounds nuw i8, ptr %116, i64 %117
  %119 = load ptr, ptr %21, align 8, !tbaa !9
  %120 = icmp ne ptr %118, %119
  br i1 %120, label %121, label %123

121:                                              ; preds = %115
  %122 = call i32 @mbedtls_error_add(i32 noundef -15616, i32 noundef -102, ptr noundef @.str, i32 noundef 694)
  store i32 %122, ptr %6, align 4
  store i32 1, ptr %22, align 4
  br label %163

123:                                              ; preds = %115
  %124 = load ptr, ptr %7, align 8, !tbaa !11
  %125 = load ptr, ptr %18, align 8, !tbaa !9
  %126 = load ptr, ptr %21, align 8, !tbaa !9
  %127 = load ptr, ptr %18, align 8, !tbaa !9
  %128 = ptrtoint ptr %126 to i64
  %129 = ptrtoint ptr %127 to i64
  %130 = sub i64 %128, %129
  %131 = call i32 @mbedtls_pk_ecc_set_pubkey(ptr noundef %124, ptr noundef %125, i64 noundef %130)
  store i32 %131, ptr %12, align 4, !tbaa !13
  %132 = icmp eq i32 %131, 0
  br i1 %132, label %133, label %134

133:                                              ; preds = %123
  store i32 1, ptr %14, align 4, !tbaa !13
  br label %139

134:                                              ; preds = %123
  %135 = load i32, ptr %12, align 4, !tbaa !13
  %136 = icmp ne i32 %135, -20096
  br i1 %136, label %137, label %138

137:                                              ; preds = %134
  store i32 -15616, ptr %6, align 4
  store i32 1, ptr %22, align 4
  br label %163

138:                                              ; preds = %134
  br label %139

139:                                              ; preds = %138, %133
  br label %147

140:                                              ; preds = %101
  %141 = load i32, ptr %12, align 4, !tbaa !13
  %142 = icmp ne i32 %141, -98
  br i1 %142, label %143, label %146

143:                                              ; preds = %140
  %144 = load i32, ptr %12, align 4, !tbaa !13
  %145 = call i32 @mbedtls_error_add(i32 noundef -15616, i32 noundef %144, ptr noundef @.str, i32 noundef 709)
  store i32 %145, ptr %6, align 4
  store i32 1, ptr %22, align 4
  br label %163

146:                                              ; preds = %140
  br label %147

147:                                              ; preds = %146, %139
  br label %148

148:                                              ; preds = %147, %97
  %149 = load i32, ptr %14, align 4, !tbaa !13
  %150 = icmp ne i32 %149, 0
  br i1 %150, label %162, label %151

151:                                              ; preds = %148
  %152 = load ptr, ptr %7, align 8, !tbaa !11
  %153 = load ptr, ptr %19, align 8, !tbaa !9
  %154 = load i64, ptr %16, align 8, !tbaa !15
  %155 = load ptr, ptr %10, align 8, !tbaa !19
  %156 = load ptr, ptr %11, align 8, !tbaa !19
  %157 = call i32 @mbedtls_pk_ecc_set_pubkey_from_prv(ptr noundef %152, ptr noundef %153, i64 noundef %154, ptr noundef %155, ptr noundef %156)
  store i32 %157, ptr %12, align 4, !tbaa !13
  %158 = icmp ne i32 %157, 0
  br i1 %158, label %159, label %161

159:                                              ; preds = %151
  %160 = load i32, ptr %12, align 4, !tbaa !13
  store i32 %160, ptr %6, align 4
  store i32 1, ptr %22, align 4
  br label %163

161:                                              ; preds = %151
  br label %162

162:                                              ; preds = %161, %148
  store i32 0, ptr %6, align 4
  store i32 1, ptr %22, align 4
  br label %163

163:                                              ; preds = %162, %159, %143, %137, %121, %112, %95, %83, %77, %51, %46, %40, %30
  call void @llvm.lifetime.end.p0(i64 8, ptr %21) #9
  call void @llvm.lifetime.end.p0(i64 8, ptr %20) #9
  call void @llvm.lifetime.end.p0(i64 8, ptr %19) #9
  call void @llvm.lifetime.end.p0(i64 8, ptr %18) #9
  call void @llvm.lifetime.end.p0(i64 24, ptr %17) #9
  call void @llvm.lifetime.end.p0(i64 8, ptr %16) #9
  call void @llvm.lifetime.end.p0(i64 8, ptr %15) #9
  call void @llvm.lifetime.end.p0(i64 4, ptr %14) #9
  call void @llvm.lifetime.end.p0(i64 4, ptr %13) #9
  call void @llvm.lifetime.end.p0(i64 4, ptr %12) #9
  %164 = load i32, ptr %6, align 4
  ret i32 %164
}