; Function Attrs: nounwind uwtable
define internal fastcc i32 @pk_parse_key_sec1_der(ptr noundef %0, ptr noundef %1, i64 noundef %2, ptr noundef %3, ptr noundef %4) unnamed_addr #0 {
  %6 = alloca i32, align 4
  %7 = alloca i64, align 8
  %8 = alloca %struct.mbedtls_asn1_buf, align 8
  %9 = alloca ptr, align 8
  call void @llvm.lifetime.start.p0(i64 4, ptr nonnull %6) #9
  call void @llvm.lifetime.start.p0(i64 8, ptr nonnull %7) #9
  call void @llvm.lifetime.start.p0(i64 24, ptr nonnull %8) #9
  call void @llvm.memset.p0.i64(ptr noundef nonnull align 8 dereferenceable(24) %8, i8 0, i64 24, i1 false)
  call void @llvm.lifetime.start.p0(i64 8, ptr nonnull %9) #9
  store ptr %1, ptr %9, align 8, !tbaa !7
  %10 = getelementptr inbounds nuw i8, ptr %1, i64 %2
  %11 = call i32 @mbedtls_asn1_get_tag(ptr noundef nonnull %9, ptr noundef %10, ptr noundef nonnull %7, i32 noundef 48) #9
  %.not = icmp eq i32 %11, 0
  br i1 %.not, label %14, label %12

12:                                               ; preds = %5
  %13 = add nsw i32 %11, -15616
  br label %68

14:                                               ; preds = %5
  %15 = load ptr, ptr %9, align 8, !tbaa !7
  %16 = load i64, ptr %7, align 8, !tbaa !10
  %17 = getelementptr inbounds nuw i8, ptr %15, i64 %16
  %18 = call i32 @mbedtls_asn1_get_int(ptr noundef nonnull %9, ptr noundef %17, ptr noundef nonnull %6) #9
  %.not51 = icmp eq i32 %18, 0
  br i1 %.not51, label %21, label %19

19:                                               ; preds = %14
  %20 = add nsw i32 %18, -15616
  br label %68

21:                                               ; preds = %14
  %22 = load i32, ptr %6, align 4, !tbaa !3
  %.not52 = icmp eq i32 %22, 1
  br i1 %.not52, label %23, label %68

23:                                               ; preds = %21
  %24 = call i32 @mbedtls_asn1_get_tag(ptr noundef nonnull %9, ptr noundef %17, ptr noundef nonnull %7, i32 noundef 4) #9
  %.not53 = icmp eq i32 %24, 0
  br i1 %.not53, label %27, label %25

25:                                               ; preds = %23
  %26 = add nsw i32 %24, -15616
  br label %68

27:                                               ; preds = %23
  %28 = load ptr, ptr %9, align 8, !tbaa !7
  %29 = load i64, ptr %7, align 8, !tbaa !10
  %30 = getelementptr inbounds nuw i8, ptr %28, i64 %29
  store ptr %30, ptr %9, align 8, !tbaa !7
  %.not54 = icmp eq ptr %30, %17
  br i1 %.not54, label %42, label %31

31:                                               ; preds = %27
  %32 = call i32 @mbedtls_asn1_get_tag(ptr noundef nonnull %9, ptr noundef %17, ptr noundef nonnull %7, i32 noundef 160) #9
  switch i32 %32, label %40 [
    i32 0, label %33
    i32 -98, label %42
  ]

33:                                               ; preds = %31
  %34 = load ptr, ptr %9, align 8, !tbaa !7
  %35 = load i64, ptr %7, align 8, !tbaa !10
  %36 = getelementptr inbounds nuw i8, ptr %34, i64 %35
  %37 = call fastcc i32 @pk_get_ecparams(ptr noundef %9, ptr noundef %36, ptr noundef %8)
  %.not56 = icmp eq i32 %37, 0
  br i1 %.not56, label %38, label %68

38:                                               ; preds = %33
  %39 = call fastcc i32 @pk_use_ecparams(ptr noundef %8, ptr noundef %0)
  %.not57 = icmp eq i32 %39, 0
  br i1 %.not57, label %42, label %68

40:                                               ; preds = %31
  %41 = add nsw i32 %32, -15616
  br label %68

42:                                               ; preds = %31, %38, %27
  %43 = call i32 @mbedtls_pk_ecc_set_key(ptr noundef %0, ptr noundef %28, i64 noundef %29) #9
  %.not58 = icmp eq i32 %43, 0
  br i1 %.not58, label %44, label %68

44:                                               ; preds = %42
  %45 = load ptr, ptr %9, align 8, !tbaa !7
  %.not59 = icmp eq ptr %45, %17
  br i1 %.not59, label %.critedge, label %46

46:                                               ; preds = %44
  %47 = call i32 @mbedtls_asn1_get_tag(ptr noundef nonnull %9, ptr noundef %17, ptr noundef nonnull %7, i32 noundef 161) #9
  switch i32 %47, label %64 [
    i32 0, label %48
    i32 -98, label %.critedge
  ]

48:                                               ; preds = %46
  %49 = load ptr, ptr %9, align 8, !tbaa !7
  %50 = load i64, ptr %7, align 8, !tbaa !10
  %51 = getelementptr inbounds nuw i8, ptr %49, i64 %50
  %52 = call i32 @mbedtls_asn1_get_bitstring_null(ptr noundef nonnull %9, ptr noundef %51, ptr noundef nonnull %7) #9
  %.not61 = icmp eq i32 %52, 0
  br i1 %.not61, label %55, label %53

53:                                               ; preds = %48
  %54 = add nsw i32 %52, -15616
  br label %68

55:                                               ; preds = %48
  %56 = load ptr, ptr %9, align 8, !tbaa !7
  %57 = load i64, ptr %7, align 8, !tbaa !10
  %58 = getelementptr inbounds nuw i8, ptr %56, i64 %57
  %.not62 = icmp eq ptr %58, %51
  br i1 %.not62, label %59, label %68

59:                                               ; preds = %55
  %60 = ptrtoint ptr %51 to i64
  %61 = ptrtoint ptr %56 to i64
  %62 = sub i64 %60, %61
  %63 = call i32 @mbedtls_pk_ecc_set_pubkey(ptr noundef %0, ptr noundef %56, i64 noundef %62) #9
  switch i32 %63, label %68 [
    i32 0, label %67
    i32 -20096, label %.critedge
  ]

64:                                               ; preds = %46
  %65 = add nsw i32 %47, -15616
  br label %68

.critedge:                                        ; preds = %59, %46, %44
  %66 = call i32 @mbedtls_pk_ecc_set_pubkey_from_prv(ptr noundef %0, ptr noundef %28, i64 noundef %29, ptr noundef %3, ptr noundef %4) #9
  %.not65 = icmp eq i32 %66, 0
  br i1 %.not65, label %67, label %68

67:                                               ; preds = %59, %.critedge
  br label %68

68:                                               ; preds = %55, %.critedge, %59, %42, %33, %38, %21, %67, %64, %53, %40, %25, %19, %12
  %.0 = phi i32 [ %13, %12 ], [ %20, %19 ], [ %26, %25 ], [ %54, %53 ], [ 0, %67 ], [ %65, %64 ], [ %41, %40 ], [ -15744, %21 ], [ %37, %33 ], [ %39, %38 ], [ %43, %42 ], [ -15616, %59 ], [ %66, %.critedge ], [ -15718, %55 ]
  call void @llvm.lifetime.end.p0(i64 8, ptr nonnull %9) #9
  call void @llvm.lifetime.end.p0(i64 24, ptr nonnull %8) #9
  call void @llvm.lifetime.end.p0(i64 8, ptr nonnull %7) #9
  call void @llvm.lifetime.end.p0(i64 4, ptr nonnull %6) #9
  ret i32 %.0
}